; Function Attrs: mustprogress nounwind uwtable
define void @_ZN6Assimp23GenVertexNormalsProcessC2Ev(ptr noundef nonnull align 8 dereferenceable(31) %this) unnamed_addr #0 align 2 {
entry:
  tail call void @_ZN6Assimp11BaseProcessC2Ev(ptr noundef nonnull align 8 dereferenceable(24) %this) #14
  store ptr getelementptr inbounds ({ [8 x ptr] }, ptr @_ZTVN6Assimp23GenVertexNormalsProcessE, i64 0, i32 0, i64 2), ptr %this, align 8
  %configMaxAngle = getelementptr inbounds i8, ptr %this, i64 24
  store float 0x40086F4280000000, ptr %configMaxAngle, align 8
  %force_ = getelementptr inbounds i8, ptr %this, i64 28
  store i8 0, ptr %force_, align 4
  %flippedWindingOrder_ = getelementptr inbounds i8, ptr %this, i64 29
  store i8 0, ptr %flippedWindingOrder_, align 1
  %leftHanded_ = getelementptr inbounds i8, ptr %this, i64 30
  store i8 0, ptr %leftHanded_, align 2
  ret void
}